; Function Attrs: nofree norecurse nosync nounwind memory(readwrite, inaccessiblemem: none) uwtable
define internal noundef i32 @pre_calculate_row_byte(ptr noundef readonly captures(none) %0, ptr noundef readonly captures(none) %1, i32 noundef %2, i32 noundef %3) #5 {
  %5 = load i32, ptr %1, align 8, !tbaa !44
  %6 = getelementptr inbounds nuw i8, ptr %1, i64 4
  %7 = load i32, ptr %6, align 4, !tbaa !46
  %8 = getelementptr inbounds nuw i8, ptr %1, i64 8
  %9 = load i32, ptr %8, align 8, !tbaa !48
  %10 = sext i32 %9 to i64
  %11 = mul nsw i32 %7, %2
  %12 = sdiv i32 %11, %3
  %13 = add nsw i32 %2, 1
  %14 = mul nsw i32 %7, %13
  %15 = sdiv i32 %14, %3
  %16 = icmp slt i32 %12, %15
  br i1 %16, label %.preheader.lr.ph, label %._crit_edge56

.preheader.lr.ph:                                 ; preds = %4
  %17 = getelementptr inbounds nuw i8, ptr %0, i64 72
  %18 = load ptr, ptr %17, align 8, !tbaa !4
  %19 = getelementptr inbounds nuw i8, ptr %18, i64 80
  %20 = load i32, ptr %19, align 8, !tbaa !62
  %21 = icmp sgt i32 %5, 0
  %22 = sext i32 %20 to i64
  br i1 %21, label %.preheader.us.preheader, label %._crit_edge56

.preheader.us.preheader:                          ; preds = %.preheader.lr.ph
  %23 = getelementptr inbounds nuw i8, ptr %18, i64 64
  %24 = load ptr, ptr %23, align 8, !tbaa !63
  %25 = add nsw i32 %12, 1
  %26 = mul i32 %25, %20
  %27 = sext i32 %26 to i64
  %28 = getelementptr inbounds i64, ptr %24, i64 %27
  %29 = getelementptr inbounds nuw i8, ptr %18, i64 72
  %30 = load ptr, ptr %29, align 8, !tbaa !64
  %31 = getelementptr inbounds i64, ptr %30, i64 %27
  %32 = getelementptr inbounds nuw i8, ptr %1, i64 16
  %33 = load ptr, ptr %32, align 8, !tbaa !47
  %34 = mul nsw i32 %12, %9
  %35 = sext i32 %34 to i64
  %36 = getelementptr inbounds i8, ptr %33, i64 %35
  %wide.trip.count = zext nneg i32 %5 to i64
  %37 = add nsw i64 %27, %wide.trip.count
  %38 = shl nsw i64 %37, 3
  %39 = add nsw i64 %38, 8
  %40 = shl nsw i64 %22, 3
  br label %.lver.check

.lver.check:                                      ; preds = %.preheader.us.preheader, %._crit_edge.us
  %indvar = phi i64 [ 0, %.preheader.us.preheader ], [ %indvar.next, %._crit_edge.us ]
  %.055.us = phi i32 [ %12, %.preheader.us.preheader ], [ %71, %._crit_edge.us ]
  %.04854.us = phi ptr [ %36, %.preheader.us.preheader ], [ %70, %._crit_edge.us ]
  %.04953.us = phi ptr [ %31, %.preheader.us.preheader ], [ %69, %._crit_edge.us ]
  %.05052.us = phi ptr [ %28, %.preheader.us.preheader ], [ %68, %._crit_edge.us ]
  %41 = mul i64 %40, %indvar
  %42 = add i64 %39, %41
  %scevgep = getelementptr i8, ptr %24, i64 %42
  %scevgep60 = getelementptr i8, ptr %30, i64 %42
  %bound0 = icmp ult ptr %.05052.us, %scevgep60
  %bound1 = icmp ult ptr %.04953.us, %scevgep
  %found.conflict = and i1 %bound0, %bound1
  br i1 %found.conflict, label %.ph.lver.orig, label %.ph

.ph.lver.orig:                                    ; preds = %.lver.check, %.ph.lver.orig
  %indvars.iv.lver.orig = phi i64 [ %indvars.iv.next.lver.orig, %.ph.lver.orig ], [ 0, %.lver.check ]
  %43 = getelementptr inbounds nuw i64, ptr %.05052.us, i64 %indvars.iv.lver.orig
  %44 = load i64, ptr %43, align 8, !tbaa !65
  %45 = getelementptr inbounds nuw i8, ptr %.04854.us, i64 %indvars.iv.lver.orig
  %46 = load i8, ptr %45, align 1, !tbaa !68
  %47 = zext i8 %46 to i64
  %48 = add i64 %44, %47
  %indvars.iv.next.lver.orig = add nuw nsw i64 %indvars.iv.lver.orig, 1
  %49 = getelementptr inbounds nuw i64, ptr %.05052.us, i64 %indvars.iv.next.lver.orig
  store i64 %48, ptr %49, align 8, !tbaa !65
  %50 = getelementptr inbounds nuw i64, ptr %.04953.us, i64 %indvars.iv.lver.orig
  %51 = load i64, ptr %50, align 8, !tbaa !65
  %52 = load i8, ptr %45, align 1, !tbaa !68
  %53 = zext i8 %52 to i64
  %54 = mul nuw nsw i64 %53, %53
  %55 = add i64 %54, %51
  %56 = getelementptr inbounds nuw i64, ptr %.04953.us, i64 %indvars.iv.next.lver.orig
  store i64 %55, ptr %56, align 8, !tbaa !65
  %exitcond.not.lver.orig = icmp eq i64 %indvars.iv.next.lver.orig, %wide.trip.count
  br i1 %exitcond.not.lver.orig, label %._crit_edge.us, label %.ph.lver.orig, !llvm.loop !69

.ph:                                              ; preds = %.lver.check
  %load_initial = load i64, ptr %.05052.us, align 8
  %load_initial62 = load i64, ptr %.04953.us, align 8
  br label %57

57:                                               ; preds = %.ph, %57
  %store_forwarded63 = phi i64 [ %load_initial62, %.ph ], [ %66, %57 ]
  %store_forwarded = phi i64 [ %load_initial, %.ph ], [ %61, %57 ]
  %indvars.iv = phi i64 [ 0, %.ph ], [ %indvars.iv.next, %57 ]
  %58 = getelementptr inbounds nuw i8, ptr %.04854.us, i64 %indvars.iv
  %59 = load i8, ptr %58, align 1, !tbaa !68
  %60 = zext i8 %59 to i64
  %61 = add i64 %store_forwarded, %60
  %indvars.iv.next = add nuw nsw i64 %indvars.iv, 1
  %62 = getelementptr inbounds nuw i64, ptr %.05052.us, i64 %indvars.iv.next
  store i64 %61, ptr %62, align 8, !tbaa !65
  %63 = load i8, ptr %58, align 1, !tbaa !68
  %64 = zext i8 %63 to i64
  %65 = mul nuw nsw i64 %64, %64
  %66 = add i64 %65, %store_forwarded63
  %67 = getelementptr inbounds nuw i64, ptr %.04953.us, i64 %indvars.iv.next
  store i64 %66, ptr %67, align 8, !tbaa !65
  %exitcond.not = icmp eq i64 %indvars.iv.next, %wide.trip.count
  br i1 %exitcond.not, label %._crit_edge.us, label %57, !llvm.loop !69

._crit_edge.us:                                   ; preds = %57, %.ph.lver.orig
  %68 = getelementptr inbounds i64, ptr %.05052.us, i64 %22
  %69 = getelementptr inbounds i64, ptr %.04953.us, i64 %22
  %70 = getelementptr inbounds i8, ptr %.04854.us, i64 %10
  %71 = add nsw i32 %.055.us, 1
  %exitcond59.not = icmp eq i32 %71, %15
  %indvar.next = add i64 %indvar, 1
  br i1 %exitcond59.not, label %._crit_edge56, label %.lver.check, !llvm.loop !70

._crit_edge56:                                    ; preds = %._crit_edge.us, %.preheader.lr.ph, %4
  ret i32 0
}